target datalayout = "e-m:e-p270:32:32-p271:32:32-p272:64:64-i64:64-i128:128-f80:128-n8:16:32:64-S128"
target triple = "x86_64-pc-linux-gnu"

; Function Attrs: inlinehint nounwind uwtable
define internal float @clamp_simd(float noundef %0) #2 {
  %2 = alloca float, align 4
  store float %0, ptr %2, align 4, !tbaa !45
  %3 = load float, ptr %2, align 4, !tbaa !45
  %4 = call reassoc nsz arcp contract afn float @llvm.maxnum.f32(float %3, float 0.000000e+00)
  %5 = call reassoc nsz arcp contract afn float @llvm.minnum.f32(float %4, float 1.000000e+00)
  ret float %5
}

; Function Attrs: nounwind uwtable
define internal void @_blend_multiply(ptr noundef %0, ptr noundef %1, ptr noundef %2, ptr noalias noundef %3, i64 noundef %4) #0 {
  %6 = alloca ptr, align 8
  %7 = alloca ptr, align 8
  %8 = alloca ptr, align 8
  %9 = alloca ptr, align 8
  %10 = alloca i64, align 8
  %11 = alloca i64, align 8
  %12 = alloca i64, align 8
  %13 = alloca i32, align 4
  %14 = alloca float, align 4
  %15 = alloca i32, align 4
  store ptr %0, ptr %6, align 8, !tbaa !11
  store ptr %1, ptr %7, align 8, !tbaa !11
  store ptr %2, ptr %8, align 8, !tbaa !11
  store ptr %3, ptr %9, align 8, !tbaa !11
  store i64 %4, ptr %10, align 8, !tbaa !43
  call void @llvm.lifetime.start.p0(i64 8, ptr %11) #8
  store i64 0, ptr %11, align 8, !tbaa !43
  call void @llvm.lifetime.start.p0(i64 8, ptr %12) #8
  store i64 0, ptr %12, align 8, !tbaa !43
  br label %16

16:                                               ; preds = %75, %5
  %17 = load i64, ptr %11, align 8, !tbaa !43
  %18 = load i64, ptr %10, align 8, !tbaa !43
  %19 = icmp ult i64 %17, %18
  br i1 %19, label %21, label %20

20:                                               ; preds = %16
  store i32 2, ptr %13, align 4
  call void @llvm.lifetime.end.p0(i64 8, ptr %12) #8
  call void @llvm.lifetime.end.p0(i64 8, ptr %11) #8
  br label %80

21:                                               ; preds = %16
  call void @llvm.lifetime.start.p0(i64 4, ptr %14) #8
  %22 = load ptr, ptr %9, align 8, !tbaa !11
  %23 = load i64, ptr %11, align 8, !tbaa !43
  %24 = getelementptr inbounds nuw float, ptr %22, i64 %23
  %25 = load float, ptr %24, align 4, !tbaa !45
  store float %25, ptr %14, align 4, !tbaa !45
  call void @llvm.lifetime.start.p0(i64 4, ptr %15) #8
  store i32 0, ptr %15, align 4, !tbaa !36
  br label %26

26:                                               ; preds = %66, %21
  %27 = load i32, ptr %15, align 4, !tbaa !36
  %28 = icmp slt i32 %27, 3
  br i1 %28, label %30, label %29

29:                                               ; preds = %26
  store i32 5, ptr %13, align 4
  call void @llvm.lifetime.end.p0(i64 4, ptr %15) #8
  br label %69

30:                                               ; preds = %26
  %31 = load ptr, ptr %6, align 8, !tbaa !11
  %32 = load i64, ptr %12, align 8, !tbaa !43
  %33 = load i32, ptr %15, align 4, !tbaa !36
  %34 = sext i32 %33 to i64
  %35 = add i64 %32, %34
  %36 = getelementptr inbounds nuw float, ptr %31, i64 %35
  %37 = load float, ptr %36, align 4, !tbaa !45
  %38 = load float, ptr %14, align 4, !tbaa !45
  %39 = fsub reassoc nsz arcp contract afn float 1.000000e+00, %38
  %40 = fmul reassoc nsz arcp contract afn float %37, %39
  %41 = load ptr, ptr %6, align 8, !tbaa !11
  %42 = load i64, ptr %12, align 8, !tbaa !43
  %43 = load i32, ptr %15, align 4, !tbaa !36
  %44 = sext i32 %43 to i64
  %45 = add i64 %42, %44
  %46 = getelementptr inbounds nuw float, ptr %41, i64 %45
  %47 = load float, ptr %46, align 4, !tbaa !45
  %48 = load ptr, ptr %7, align 8, !tbaa !11
  %49 = load i64, ptr %12, align 8, !tbaa !43
  %50 = load i32, ptr %15, align 4, !tbaa !36
  %51 = sext i32 %50 to i64
  %52 = add i64 %49, %51
  %53 = getelementptr inbounds nuw float, ptr %48, i64 %52
  %54 = load float, ptr %53, align 4, !tbaa !45
  %55 = fmul reassoc nsz arcp contract afn float %47, %54
  %56 = load float, ptr %14, align 4, !tbaa !45
  %57 = fmul reassoc nsz arcp contract afn float %55, %56
  %58 = fadd reassoc nsz arcp contract afn float %40, %57
  %59 = call reassoc nsz arcp contract afn float @clamp_simd(float noundef %58)
  %60 = load ptr, ptr %8, align 8, !tbaa !11
  %61 = load i64, ptr %12, align 8, !tbaa !43
  %62 = load i32, ptr %15, align 4, !tbaa !36
  %63 = sext i32 %62 to i64
  %64 = add i64 %61, %63
  %65 = getelementptr inbounds nuw float, ptr %60, i64 %64
  store float %59, ptr %65, align 4, !tbaa !45
  br label %66

66:                                               ; preds = %30
  %67 = load i32, ptr %15, align 4, !tbaa !36
  %68 = add nsw i32 %67, 1
  store i32 %68, ptr %15, align 4, !tbaa !36
  br label %26

69:                                               ; preds = %29
  %70 = load float, ptr %14, align 4, !tbaa !45
  %71 = load ptr, ptr %8, align 8, !tbaa !11
  %72 = load i64, ptr %12, align 8, !tbaa !43
  %73 = add i64 %72, 3
  %74 = getelementptr inbounds nuw float, ptr %71, i64 %73
  store float %70, ptr %74, align 4, !tbaa !45
  call void @llvm.lifetime.end.p0(i64 4, ptr %14) #8
  br label %75

75:                                               ; preds = %69
  %76 = load i64, ptr %11, align 8, !tbaa !43
  %77 = add i64 %76, 1
  store i64 %77, ptr %11, align 8, !tbaa !43
  %78 = load i64, ptr %12, align 8, !tbaa !43
  %79 = add i64 %78, 4
  store i64 %79, ptr %12, align 8, !tbaa !43
  br label %16

80:                                               ; preds = %20
  ret void
}