; Function Attrs: nofree norecurse nosync nounwind memory(argmem: readwrite) uwtable
define internal void @_blend_multiply(ptr noundef readonly captures(none) %0, ptr noundef readonly captures(none) %1, ptr noundef writeonly captures(none) %2, ptr noalias noundef readonly captures(none) %3, i64 noundef %4) unnamed_addr #10 {
  %.not = icmp eq i64 %4, 0
  br i1 %.not, label %._crit_edge, label %.lr.ph

._crit_edge:                                      ; preds = %8, %5
  ret void

.lr.ph:                                           ; preds = %5, %8
  %.02428 = phi i64 [ %11, %8 ], [ 0, %5 ]
  %.02527 = phi i64 [ %12, %8 ], [ 0, %5 ]
  %6 = getelementptr inbounds nuw float, ptr %3, i64 %.02428
  %7 = load float, ptr %6, align 4, !tbaa !36
  br label %13

8:                                                ; preds = %13
  %9 = or disjoint i64 %.02527, 3
  %10 = getelementptr inbounds nuw float, ptr %2, i64 %9
  store float %7, ptr %10, align 4, !tbaa !36
  %11 = add nuw i64 %.02428, 1
  %12 = add i64 %.02527, 4
  %exitcond30.not = icmp eq i64 %11, %4
  br i1 %exitcond30.not, label %._crit_edge, label %.lr.ph

13:                                               ; preds = %.lr.ph, %13
  %indvars.iv = phi i64 [ 0, %.lr.ph ], [ %indvars.iv.next, %13 ]
  %14 = or disjoint i64 %.02527, %indvars.iv
  %15 = getelementptr inbounds nuw float, ptr %0, i64 %14
  %16 = load float, ptr %15, align 4, !tbaa !36
  %17 = getelementptr inbounds nuw float, ptr %1, i64 %14
  %18 = load float, ptr %17, align 4, !tbaa !36
  %19 = fmul reassoc nsz arcp contract afn float %18, %16
  %20 = fsub reassoc nsz arcp contract afn float %19, %16
  %21 = fmul reassoc nsz arcp contract afn float %20, %7
  %22 = fadd reassoc nsz arcp contract afn float %21, %16
  %23 = tail call reassoc nsz arcp contract afn float @llvm.maxnum.f32(float %22, float 0.000000e+00)
  %24 = tail call reassoc nsz arcp contract afn noundef float @llvm.minnum.f32(float %23, float 1.000000e+00)
  %25 = getelementptr inbounds nuw float, ptr %2, i64 %14
  store float %24, ptr %25, align 4, !tbaa !36
  %indvars.iv.next = add nuw nsw i64 %indvars.iv, 1
  %exitcond.not = icmp eq i64 %indvars.iv.next, 3
  br i1 %exitcond.not, label %8, label %13
}